target datalayout = "e-m:e-p270:32:32-p271:32:32-p272:64:64-i64:64-i128:128-f80:128-n8:16:32:64-S128"
target triple = "x86_64-pc-linux-gnu"

; Function Attrs: mustprogress uwtable
define void @_ZN32pxrInternal_v0_24__pxrReserved__41UsdProcImagingGenerativeProceduralAdapter9MarkDirtyERKNS_7UsdPrimERKNS_7SdfPathEjPNS_20UsdImagingIndexProxyE(ptr noundef nonnull align 8 dereferenceable(32) %0, ptr noundef nonnull align 8 dereferenceable(32) %1, ptr noundef nonnull align 4 dereferenceable(8) %2, i32 noundef %3, ptr noundef %4) unnamed_addr #0 align 2 {
  %6 = alloca ptr, align 8
  %7 = alloca ptr, align 8
  %8 = alloca ptr, align 8
  %9 = alloca i32, align 4
  %10 = alloca ptr, align 8
  store ptr %0, ptr %6, align 8
  store ptr %1, ptr %7, align 8
  store ptr %2, ptr %8, align 8
  store i32 %3, ptr %9, align 4
  store ptr %4, ptr %10, align 8
  %11 = load ptr, ptr %10, align 8
  %12 = load ptr, ptr %8, align 8
  %13 = load i32, ptr %9, align 4
  call void @_ZN32pxrInternal_v0_24__pxrReserved__20UsdImagingIndexProxy14MarkRprimDirtyERKNS_7SdfPathEj(ptr noundef nonnull align 8 dereferenceable(184) %11, ptr noundef nonnull align 4 dereferenceable(8) %12, i32 noundef %13)
  %14 = load i32, ptr %9, align 4
  %15 = and i32 %14, 64
  %16 = icmp ne i32 %15, 0
  br i1 %16, label %17, label %20

17:                                               ; preds = %5
  %18 = load ptr, ptr %10, align 8
  %19 = load ptr, ptr %8, align 8
  call void @_ZN32pxrInternal_v0_24__pxrReserved__20UsdImagingIndexProxy20RequestUpdateForTimeERKNS_7SdfPathE(ptr noundef nonnull align 8 dereferenceable(184) %18, ptr noundef nonnull align 4 dereferenceable(8) %19)
  br label %20

20:                                               ; preds = %17, %5
  ret void
}